; Function Attrs: nounwind uwtable
define internal ptr @_lzma__encode_filter_properties(ptr noundef %0, ptr noundef %1) #0 {
  %3 = alloca %struct.lzma_filter, align 8
  %4 = alloca i32, align 4
  %5 = alloca %struct.lzma_filter, align 8
  call void @llvm.lifetime.start.p0(i64 16, ptr nonnull %5) #10
  call void @llvm.memcpy.p0.p0.i64(ptr noundef nonnull align 8 dereferenceable(16) %5, ptr noundef nonnull align 8 dereferenceable(16) @__const._lzma__encode_filter_properties.filter, i64 16, i1 false)
  %6 = tail call ptr @PyModule_GetState(ptr noundef %0) #10
  %7 = call fastcc i32 @lzma_filter_converter(ptr noundef %6, ptr noundef %1, ptr noundef nonnull %5)
  %.not = icmp eq i32 %7, 0
  %.pre = load i64, ptr %5, align 8, !tbaa !16
  br i1 %.not, label %30, label %8

8:                                                ; preds = %2
  %9 = getelementptr inbounds nuw i8, ptr %5, i64 8
  %10 = load ptr, ptr %9, align 8
  call void @llvm.lifetime.start.p0(i64 16, ptr nonnull %3)
  store i64 %.pre, ptr %3, align 8
  %11 = getelementptr inbounds nuw i8, ptr %3, i64 8
  store ptr %10, ptr %11, align 8
  call void @llvm.lifetime.start.p0(i64 4, ptr nonnull %4) #10
  %12 = tail call ptr @PyModule_GetState(ptr noundef %0) #10
  %13 = call i32 @lzma_properties_size(ptr noundef nonnull %4, ptr noundef nonnull %3) #10
  %14 = call fastcc i32 @catch_lzma_error(ptr noundef %12, i32 noundef %13)
  %.not.i = icmp eq i32 %14, 0
  br i1 %.not.i, label %15, label %_lzma__encode_filter_properties_impl.exit

15:                                               ; preds = %8
  %16 = load i32, ptr %4, align 4, !tbaa !19
  %17 = zext i32 %16 to i64
  %18 = call ptr @PyBytes_FromStringAndSize(ptr noundef null, i64 noundef %17) #10
  %19 = icmp eq ptr %18, null
  br i1 %19, label %_lzma__encode_filter_properties_impl.exit, label %20

20:                                               ; preds = %15
  %21 = getelementptr inbounds nuw i8, ptr %18, i64 32
  %22 = call i32 @lzma_properties_encode(ptr noundef nonnull %3, ptr noundef nonnull %21) #10
  %23 = call fastcc i32 @catch_lzma_error(ptr noundef %12, i32 noundef %22)
  %.not11.i = icmp eq i32 %23, 0
  br i1 %.not11.i, label %_lzma__encode_filter_properties_impl.exit, label %24

24:                                               ; preds = %20
  %25 = load i32, ptr %18, align 8, !tbaa !14
  %.not.i.i.i = icmp sgt i32 %25, -1
  br i1 %.not.i.i.i, label %26, label %_lzma__encode_filter_properties_impl.exit

26:                                               ; preds = %24
  %27 = add nsw i32 %25, -1
  store i32 %27, ptr %18, align 8, !tbaa !14
  %28 = icmp eq i32 %27, 0
  br i1 %28, label %29, label %_lzma__encode_filter_properties_impl.exit

29:                                               ; preds = %26
  call void @_Py_Dealloc(ptr noundef nonnull %18) #10
  br label %_lzma__encode_filter_properties_impl.exit

_lzma__encode_filter_properties_impl.exit:        ; preds = %8, %15, %20, %24, %26, %29
  %.0.i = phi ptr [ %18, %20 ], [ null, %24 ], [ null, %26 ], [ null, %29 ], [ null, %8 ], [ null, %15 ]
  call void @llvm.lifetime.end.p0(i64 4, ptr nonnull %4) #10
  call void @llvm.lifetime.end.p0(i64 16, ptr nonnull %3)
  br label %30

30:                                               ; preds = %2, %_lzma__encode_filter_properties_impl.exit
  %.0 = phi ptr [ %.0.i, %_lzma__encode_filter_properties_impl.exit ], [ null, %2 ]
  %.not5 = icmp eq i64 %.pre, -1
  br i1 %.not5, label %34, label %31

31:                                               ; preds = %30
  %32 = getelementptr inbounds nuw i8, ptr %5, i64 8
  %33 = load ptr, ptr %32, align 8, !tbaa !21
  call void @PyMem_Free(ptr noundef %33) #10
  br label %34

34:                                               ; preds = %31, %30
  call void @llvm.lifetime.end.p0(i64 16, ptr nonnull %5) #10
  ret ptr %.0
}